; ModuleID = '55/1289.cpp'
source_filename = "55/1289.cpp"
target datalayout = "e-m:e-p270:32:32-p271:32:32-p272:64:64-i64:64-f80:128-n8:16:32:64-S128"
target triple = "x86_64-pc-linux-gnu"

%"class.std::ios_base::Init" = type { i8 }
%"class.std::basic_istream" = type { i32 (...)**, i64, %"class.std::basic_ios" }
%"class.std::basic_ios" = type { %"class.std::ios_base", %"class.std::basic_ostream"*, i8, i8, %"class.std::basic_streambuf"*, %"class.std::ctype"*, %"class.std::num_put"*, %"class.std::num_get"* }
%"class.std::ios_base" = type { i32 (...)**, i64, i64, i32, i32, i32, %"struct.std::ios_base::_Callback_list"*, %"struct.std::ios_base::_Words", [8 x %"struct.std::ios_base::_Words"], i32, %"struct.std::ios_base::_Words"*, %"class.std::locale" }
%"struct.std::ios_base::_Callback_list" = type { %"struct.std::ios_base::_Callback_list"*, void (i32, %"class.std::ios_base"*, i32)*, i32, i32 }
%"struct.std::ios_base::_Words" = type { i8*, i64 }
%"class.std::locale" = type { %"class.std::locale::_Impl"* }
%"class.std::locale::_Impl" = type { i32, %"class.std::locale::facet"**, i64, %"class.std::locale::facet"**, i8** }
%"class.std::locale::facet" = type <{ i32 (...)**, i32, [4 x i8] }>
%"class.std::basic_ostream" = type { i32 (...)**, %"class.std::basic_ios" }
%"class.std::basic_streambuf" = type { i32 (...)**, i8*, i8*, i8*, i8*, i8*, i8*, %"class.std::locale" }
%"class.std::ctype" = type <{ %"class.std::locale::facet.base", [4 x i8], %struct.__locale_struct*, i8, [7 x i8], i32*, i32*, i16*, i8, [256 x i8], [256 x i8], i8, [6 x i8] }>
%"class.std::locale::facet.base" = type <{ i32 (...)**, i32 }>
%struct.__locale_struct = type { [13 x %struct.__locale_data*], i16*, i32*, i32*, [13 x i8*] }
%struct.__locale_data = type opaque
%"class.std::num_put" = type { %"class.std::locale::facet.base", [4 x i8] }
%"class.std::num_get" = type { %"class.std::locale::facet.base", [4 x i8] }

@_ZStL8__ioinit = internal global %"class.std::ios_base::Init" zeroinitializer, align 1
@__dso_handle = external hidden global i8
@i = dso_local global i32 0, align 4
@_ZSt3cin = external dso_local global %"class.std::basic_istream", align 8
@_ZSt4cout = external dso_local global %"class.std::basic_ostream", align 8
@llvm.global_ctors = appending global [1 x { i32, void ()*, i8* }] [{ i32, void ()*, i8* } { i32 65535, void ()* @_GLOBAL__sub_I_1289.cpp, i8* null }]

; Function Attrs: noinline uwtable
define internal void @__cxx_global_var_init() #0 section ".text.startup" {
  call void @_ZNSt8ios_base4InitC1Ev(%"class.std::ios_base::Init"* @_ZStL8__ioinit)
  %1 = call i32 @__cxa_atexit(void (i8*)* bitcast (void (%"class.std::ios_base::Init"*)* @_ZNSt8ios_base4InitD1Ev to void (i8*)*), i8* getelementptr inbounds (%"class.std::ios_base::Init", %"class.std::ios_base::Init"* @_ZStL8__ioinit, i32 0, i32 0), i8* @__dso_handle) #3
  ret void
}

declare dso_local void @_ZNSt8ios_base4InitC1Ev(%"class.std::ios_base::Init"*) unnamed_addr #1

; Function Attrs: nounwind
declare dso_local void @_ZNSt8ios_base4InitD1Ev(%"class.std::ios_base::Init"*) unnamed_addr #2

; Function Attrs: nounwind
declare dso_local i32 @__cxa_atexit(void (i8*)*, i8*, i8*) #3

; Function Attrs: noinline nounwind uwtable
define dso_local i32 @_Z2zhPci(i8* %0, i32 %1) #4 {
  %3 = alloca i32, align 4
  %4 = alloca i8*, align 8
  %5 = alloca i32, align 4
  store i8* %0, i8** %4, align 8
  store i32 %1, i32* %5, align 4
  %6 = load i8*, i8** %4, align 8
  %7 = load i32, i32* %5, align 4
  %8 = sext i32 %7 to i64
  %9 = getelementptr inbounds i8, i8* %6, i64 %8
  %10 = load i8, i8* %9, align 1
  %11 = sext i8 %10 to i32
  %12 = icmp sge i32 %11, 48
  br i1 %12, label %13, label %29

13:                                               ; preds = %2
  %14 = load i8*, i8** %4, align 8
  %15 = load i32, i32* %5, align 4
  %16 = sext i32 %15 to i64
  %17 = getelementptr inbounds i8, i8* %14, i64 %16
  %18 = load i8, i8* %17, align 1
  %19 = sext i8 %18 to i32
  %20 = icmp sle i32 %19, 57
  br i1 %20, label %21, label %29

21:                                               ; preds = %13
  %22 = load i8*, i8** %4, align 8
  %23 = load i32, i32* %5, align 4
  %24 = sext i32 %23 to i64
  %25 = getelementptr inbounds i8, i8* %22, i64 %24
  %26 = load i8, i8* %25, align 1
  %27 = sext i8 %26 to i32
  %28 = sub nsw i32 %27, 48
  store i32 %28, i32* %3, align 4
  br label %78

29:                                               ; preds = %13, %2
  %30 = load i8*, i8** %4, align 8
  %31 = load i32, i32* %5, align 4
  %32 = sext i32 %31 to i64
  %33 = getelementptr inbounds i8, i8* %30, i64 %32
  %34 = load i8, i8* %33, align 1
  %35 = sext i8 %34 to i32
  %36 = icmp sge i32 %35, 65
  br i1 %36, label %37, label %53

37:                                               ; preds = %29
  %38 = load i8*, i8** %4, align 8
  %39 = load i32, i32* %5, align 4
  %40 = sext i32 %39 to i64
  %41 = getelementptr inbounds i8, i8* %38, i64 %40
  %42 = load i8, i8* %41, align 1
  %43 = sext i8 %42 to i32
  %44 = icmp sle i32 %43, 90
  br i1 %44, label %45, label %53

45:                                               ; preds = %37
  %46 = load i8*, i8** %4, align 8
  %47 = load i32, i32* %5, align 4
  %48 = sext i32 %47 to i64
  %49 = getelementptr inbounds i8, i8* %46, i64 %48
  %50 = load i8, i8* %49, align 1
  %51 = sext i8 %50 to i32
  %52 = sub nsw i32 %51, 55
  store i32 %52, i32* %3, align 4
  br label %78

53:                                               ; preds = %37, %29
  %54 = load i8*, i8** %4, align 8
  %55 = load i32, i32* %5, align 4
  %56 = sext i32 %55 to i64
  %57 = getelementptr inbounds i8, i8* %54, i64 %56
  %58 = load i8, i8* %57, align 1
  %59 = sext i8 %58 to i32
  %60 = icmp sge i32 %59, 97
  br i1 %60, label %61, label %77

61:                                               ; preds = %53
  %62 = load i8*, i8** %4, align 8
  %63 = load i32, i32* %5, align 4
  %64 = sext i32 %63 to i64
  %65 = getelementptr inbounds i8, i8* %62, i64 %64
  %66 = load i8, i8* %65, align 1
  %67 = sext i8 %66 to i32
  %68 = icmp sle i32 %67, 122
  br i1 %68, label %69, label %77

69:                                               ; preds = %61
  %70 = load i8*, i8** %4, align 8
  %71 = load i32, i32* %5, align 4
  %72 = sext i32 %71 to i64
  %73 = getelementptr inbounds i8, i8* %70, i64 %72
  %74 = load i8, i8* %73, align 1
  %75 = sext i8 %74 to i32
  %76 = sub nsw i32 %75, 87
  store i32 %76, i32* %3, align 4
  br label %78

77:                                               ; preds = %61, %53
  call void @llvm.trap()
  unreachable

78:                                               ; preds = %69, %45, %21
  %79 = load i32, i32* %3, align 4
  ret i32 %79
}

; Function Attrs: cold noreturn nounwind
declare void @llvm.trap() #5

; Function Attrs: noinline nounwind uwtable
define dso_local signext i8 @_Z2chi(i32 %0) #4 {
  %2 = alloca i8, align 1
  %3 = alloca i32, align 4
  store i32 %0, i32* %3, align 4
  %4 = load i32, i32* %3, align 4
  %5 = icmp sle i32 %4, 9
  br i1 %5, label %6, label %10

6:                                                ; preds = %1
  %7 = load i32, i32* %3, align 4
  %8 = add nsw i32 %7, 48
  %9 = trunc i32 %8 to i8
  store i8 %9, i8* %2, align 1
  br label %18

10:                                               ; preds = %1
  %11 = load i32, i32* %3, align 4
  %12 = icmp sgt i32 %11, 9
  br i1 %12, label %13, label %17

13:                                               ; preds = %10
  %14 = load i32, i32* %3, align 4
  %15 = add nsw i32 %14, 55
  %16 = trunc i32 %15 to i8
  store i8 %16, i8* %2, align 1
  br label %18

17:                                               ; preds = %10
  call void @llvm.trap()
  unreachable

18:                                               ; preds = %13, %6
  %19 = load i8, i8* %2, align 1
  ret i8 %19
}

; Function Attrs: noinline norecurse uwtable
define dso_local i32 @main() #6 {
  %1 = alloca i32, align 4
  %2 = alloca i32, align 4
  %3 = alloca i32, align 4
  %4 = alloca i32, align 4
  %5 = alloca i32, align 4
  %6 = alloca i32, align 4
  %7 = alloca i32, align 4
  %8 = alloca i32, align 4
  %9 = alloca [99 x i8], align 16
  %10 = alloca [99 x i8], align 16
  store i32 0, i32* %1, align 4
  store i32 0, i32* %8, align 4
  store i32 0, i32* %6, align 4
  br label %11

11:                                               ; preds = %21, %0
  %12 = load i32, i32* %6, align 4
  %13 = icmp sle i32 %12, 99
  br i1 %13, label %14, label %24

14:                                               ; preds = %11
  %15 = load i32, i32* %6, align 4
  %16 = sext i32 %15 to i64
  %17 = getelementptr inbounds [99 x i8], [99 x i8]* %9, i64 0, i64 %16
  store i8 32, i8* %17, align 1
  %18 = load i32, i32* %6, align 4
  %19 = sext i32 %18 to i64
  %20 = getelementptr inbounds [99 x i8], [99 x i8]* %10, i64 0, i64 %19
  store i8 32, i8* %20, align 1
  br label %21

21:                                               ; preds = %14
  %22 = load i32, i32* %6, align 4
  %23 = add nsw i32 %22, 1
  store i32 %23, i32* %6, align 4
  br label %11

24:                                               ; preds = %11
  %25 = call dereferenceable(280) %"class.std::basic_istream"* @_ZNSirsERi(%"class.std::basic_istream"* @_ZSt3cin, i32* dereferenceable(4) %2)
  %26 = getelementptr inbounds [99 x i8], [99 x i8]* %9, i64 0, i64 0
  %27 = call dereferenceable(280) %"class.std::basic_istream"* @_ZStrsIcSt11char_traitsIcEERSt13basic_istreamIT_T0_ES6_PS3_(%"class.std::basic_istream"* dereferenceable(280) %25, i8* %26)
  %28 = call dereferenceable(280) %"class.std::basic_istream"* @_ZNSirsERi(%"class.std::basic_istream"* %27, i32* dereferenceable(4) %3)
  store i32 0, i32* %4, align 4
  br label %29

29:                                               ; preds = %44, %24
  %30 = load i32, i32* %4, align 4
  %31 = sext i32 %30 to i64
  %32 = getelementptr inbounds [99 x i8], [99 x i8]* %9, i64 0, i64 %31
  %33 = load i8, i8* %32, align 1
  %34 = sext i8 %33 to i32
  %35 = icmp ne i32 %34, 0
  br i1 %35, label %36, label %47

36:                                               ; preds = %29
  %37 = load i32, i32* %2, align 4
  %38 = load i32, i32* %8, align 4
  %39 = mul nsw i32 %37, %38
  %40 = getelementptr inbounds [99 x i8], [99 x i8]* %9, i64 0, i64 0
  %41 = load i32, i32* %4, align 4
  %42 = call i32 @_Z2zhPci(i8* %40, i32 %41)
  %43 = add nsw i32 %39, %42
  store i32 %43, i32* %8, align 4
  br label %44

44:                                               ; preds = %36
  %45 = load i32, i32* %4, align 4
  %46 = add nsw i32 %45, 1
  store i32 %46, i32* %4, align 4
  br label %29

47:                                               ; preds = %29
  store i32 0, i32* %5, align 4
  br label %48

48:                                               ; preds = %66, %47
  %49 = load i32, i32* %5, align 4
  %50 = icmp sle i32 %49, 99
  br i1 %50, label %51, label %69

51:                                               ; preds = %48
  %52 = load i32, i32* %8, align 4
  %53 = load i32, i32* %3, align 4
  %54 = srem i32 %52, %53
  %55 = call signext i8 @_Z2chi(i32 %54)
  %56 = load i32, i32* %5, align 4
  %57 = sext i32 %56 to i64
  %58 = getelementptr inbounds [99 x i8], [99 x i8]* %10, i64 0, i64 %57
  store i8 %55, i8* %58, align 1
  %59 = load i32, i32* %8, align 4
  %60 = load i32, i32* %3, align 4
  %61 = sdiv i32 %59, %60
  store i32 %61, i32* %8, align 4
  %62 = load i32, i32* %8, align 4
  %63 = icmp eq i32 %62, 0
  br i1 %63, label %64, label %65

64:                                               ; preds = %51
  br label %69

65:                                               ; preds = %51
  br label %66

66:                                               ; preds = %65
  %67 = load i32, i32* %5, align 4
  %68 = add nsw i32 %67, 1
  store i32 %68, i32* %5, align 4
  br label %48

69:                                               ; preds = %64, %48
  store i32 30, i32* %7, align 4
  br label %70

70:                                               ; preds = %87, %69
  %71 = load i32, i32* %7, align 4
  %72 = icmp sge i32 %71, 0
  br i1 %72, label %73, label %90

73:                                               ; preds = %70
  %74 = load i32, i32* %7, align 4
  %75 = sext i32 %74 to i64
  %76 = getelementptr inbounds [99 x i8], [99 x i8]* %10, i64 0, i64 %75
  %77 = load i8, i8* %76, align 1
  %78 = sext i8 %77 to i32
  %79 = icmp ne i32 %78, 32
  br i1 %79, label %80, label %86

80:                                               ; preds = %73
  %81 = load i32, i32* %7, align 4
  %82 = sext i32 %81 to i64
  %83 = getelementptr inbounds [99 x i8], [99 x i8]* %10, i64 0, i64 %82
  %84 = load i8, i8* %83, align 1
  %85 = call dereferenceable(272) %"class.std::basic_ostream"* @_ZStlsISt11char_traitsIcEERSt13basic_ostreamIcT_ES5_c(%"class.std::basic_ostream"* dereferenceable(272) @_ZSt4cout, i8 signext %84)
  br label %86

86:                                               ; preds = %80, %73
  br label %87

87:                                               ; preds = %86
  %88 = load i32, i32* %7, align 4
  %89 = add nsw i32 %88, -1
  store i32 %89, i32* %7, align 4
  br label %70

90:                                               ; preds = %70
  ret i32 0
}

declare dso_local dereferenceable(280) %"class.std::basic_istream"* @_ZStrsIcSt11char_traitsIcEERSt13basic_istreamIT_T0_ES6_PS3_(%"class.std::basic_istream"* dereferenceable(280), i8*) #1

declare dso_local dereferenceable(280) %"class.std::basic_istream"* @_ZNSirsERi(%"class.std::basic_istream"*, i32* dereferenceable(4)) #1

declare dso_local dereferenceable(272) %"class.std::basic_ostream"* @_ZStlsISt11char_traitsIcEERSt13basic_ostreamIcT_ES5_c(%"class.std::basic_ostream"* dereferenceable(272), i8 signext) #1

; Function Attrs: noinline uwtable
define internal void @_GLOBAL__sub_I_1289.cpp() #0 section ".text.startup" {
  call void @__cxx_global_var_init()
  ret void
}


!llvm.module.flags = !{!0}
!llvm.ident = !{!1}

!0 = !{i32 1, !"wchar_size", i32 4}
!1 = !{!"clang version 10.0.0-4ubuntu1 "}
