; ModuleID = 'source-C-CXX/54/1289.cpp'
source_filename = "source-C-CXX/54/1289.cpp"
target datalayout = "e-m:e-p270:32:32-p271:32:32-p272:64:64-i64:64-f80:128-n8:16:32:64-S128"
target triple = "x86_64-pc-linux-gnu"

%"class.std::ios_base::Init" = type { i8 }
%"class.std::basic_istream" = type { i32 (...)**, i64, %"class.std::basic_ios" }
%"class.std::basic_ios" = type { %"class.std::ios_base", %"class.std::basic_ostream"*, i8, i8, %"class.std::basic_streambuf"*, %"class.std::ctype"*, %"class.std::num_put"*, %"class.std::num_get"* }
%"class.std::ios_base" = type { i32 (...)**, i64, i64, i32, i32, i32, %"struct.std::ios_base::_Callback_list"*, %"struct.std::ios_base::_Words", [8 x %"struct.std::ios_base::_Words"], i32, %"struct.std::ios_base::_Words"*, %"class.std::locale" }
%"struct.std::ios_base::_Callback_list" = type { %"struct.std::ios_base::_Callback_list"*, void (i32, %"class.std::ios_base"*, i32)*, i32, i32 }
%"struct.std::ios_base::_Words" = type { i8*, i64 }
%"class.std::locale" = type { %"class.std::locale::_Impl"* }
%"class.std::locale::_Impl" = type { i32, %"class.std::locale::facet"**, i64, %"class.std::locale::facet"**, i8** }
%"class.std::locale::facet" = type <{ i32 (...)**, i32, [4 x i8] }>
%"class.std::basic_ostream" = type { i32 (...)**, %"class.std::basic_ios" }
%"class.std::basic_streambuf" = type { i32 (...)**, i8*, i8*, i8*, i8*, i8*, i8*, %"class.std::locale" }
%"class.std::ctype" = type <{ %"class.std::locale::facet.base", [4 x i8], %struct.__locale_struct*, i8, [7 x i8], i32*, i32*, i16*, i8, [256 x i8], [256 x i8], i8, [6 x i8] }>
%"class.std::locale::facet.base" = type <{ i32 (...)**, i32 }>
%struct.__locale_struct = type { [13 x %struct.__locale_data*], i16*, i32*, i32*, [13 x i8*] }
%struct.__locale_data = type opaque
%"class.std::num_put" = type { %"class.std::locale::facet.base", [4 x i8] }
%"class.std::num_get" = type { %"class.std::locale::facet.base", [4 x i8] }

@_ZStL8__ioinit = internal global %"class.std::ios_base::Init" zeroinitializer, align 1
@__dso_handle = external hidden global i8
@i = dso_local local_unnamed_addr global i32 0, align 4
@_ZSt3cin = external global %"class.std::basic_istream", align 8
@_ZSt4cout = external global %"class.std::basic_ostream", align 8
@llvm.global_ctors = appending global [1 x { i32, void ()*, i8* }] [{ i32, void ()*, i8* } { i32 65535, void ()* @_GLOBAL__sub_I_1289.cpp, i8* null }]

declare void @_ZNSt8ios_base4InitC1Ev(%"class.std::ios_base::Init"* nonnull align 1 dereferenceable(1)) unnamed_addr #0

; Function Attrs: nounwind
declare void @_ZNSt8ios_base4InitD1Ev(%"class.std::ios_base::Init"* nonnull align 1 dereferenceable(1)) unnamed_addr #1

; Function Attrs: nofree nounwind
declare i32 @__cxa_atexit(void (i8*)*, i8*, i8*) local_unnamed_addr #2

; Function Attrs: mustprogress nofree nosync nounwind sspstrong uwtable willreturn
define dso_local i32 @_Z2zhPci(i8* nocapture readonly %0, i32 %1) local_unnamed_addr #3 {
  %3 = sext i32 %1 to i64
  %4 = getelementptr inbounds i8, i8* %0, i64 %3
  %5 = load i8, i8* %4, align 1, !tbaa !5
  %6 = sext i8 %5 to i32
  %7 = add i8 %5, -48
  %8 = icmp ult i8 %7, 10
  br i1 %8, label %9, label %11

9:                                                ; preds = %2
  %10 = add nsw i32 %6, -48
  br label %21

11:                                               ; preds = %2
  %12 = add i8 %5, -65
  %13 = icmp ult i8 %12, 26
  br i1 %13, label %14, label %16

14:                                               ; preds = %11
  %15 = add nsw i32 %6, -55
  br label %21

16:                                               ; preds = %11
  %17 = zext i8 %5 to i32
  %18 = icmp ugt i8 %5, 96
  tail call void @llvm.assume(i1 %18)
  %19 = icmp ult i8 %5, 123
  tail call void @llvm.assume(i1 %19)
  %20 = add nsw i32 %17, -87
  br label %21

21:                                               ; preds = %16, %14, %9
  %22 = phi i32 [ %10, %9 ], [ %15, %14 ], [ %20, %16 ]
  ret i32 %22
}

; Function Attrs: mustprogress nofree norecurse nosync nounwind readnone sspstrong uwtable willreturn
define dso_local signext i8 @_Z2chi(i32 %0) local_unnamed_addr #4 {
  %2 = icmp slt i32 %0, 10
  %3 = trunc i32 %0 to i8
  %4 = select i1 %2, i8 48, i8 55
  %5 = add i8 %4, %3
  ret i8 %5
}

; Function Attrs: mustprogress norecurse sspstrong uwtable
define dso_local i32 @main() local_unnamed_addr #5 {
  %1 = alloca i8, align 1
  %2 = alloca i32, align 4
  %3 = alloca i32, align 4
  %4 = alloca [99 x i8], align 16
  %5 = getelementptr inbounds [99 x i8], [99 x i8]* %4, i64 0, i64 0
  %6 = alloca [99 x i8], align 16
  %7 = getelementptr inbounds [99 x i8], [99 x i8]* %6, i64 0, i64 0
  %8 = bitcast i32* %2 to i8*
  call void @llvm.lifetime.start.p0i8(i64 4, i8* nonnull %8) #10
  %9 = bitcast i32* %3 to i8*
  call void @llvm.lifetime.start.p0i8(i64 4, i8* nonnull %9) #10
  %10 = getelementptr inbounds [99 x i8], [99 x i8]* %4, i64 0, i64 0
  call void @llvm.lifetime.start.p0i8(i64 99, i8* nonnull %10) #10
  %11 = getelementptr inbounds [99 x i8], [99 x i8]* %6, i64 0, i64 0
  call void @llvm.lifetime.start.p0i8(i64 99, i8* nonnull %11) #10
  call void @llvm.memset.p0i8.i64(i8* noundef nonnull align 16 dereferenceable(100) %5, i8 32, i64 100, i1 false)
  call void @llvm.memset.p0i8.i64(i8* noundef nonnull align 16 dereferenceable(100) %7, i8 32, i64 100, i1 false)
  %12 = call nonnull align 8 dereferenceable(16) %"class.std::basic_istream"* @_ZNSirsERi(%"class.std::basic_istream"* nonnull align 8 dereferenceable(16) @_ZSt3cin, i32* nonnull align 4 dereferenceable(4) %2)
  call void @_ZSt17__istream_extractRSiPcl(%"class.std::basic_istream"* nonnull align 8 dereferenceable(16) %12, i8* nonnull %10, i64 99)
  %13 = call nonnull align 8 dereferenceable(16) %"class.std::basic_istream"* @_ZNSirsERi(%"class.std::basic_istream"* nonnull align 8 dereferenceable(16) %12, i32* nonnull align 4 dereferenceable(4) %3)
  %14 = load i32, i32* %2, align 4
  %15 = load i8, i8* %10, align 16, !tbaa !5
  %16 = icmp eq i8 %15, 0
  br i1 %16, label %17, label %20

17:                                               ; preds = %40, %0
  %18 = phi i32 [ 0, %0 ], [ %42, %40 ]
  %19 = load i32, i32* %3, align 4
  br label %47

20:                                               ; preds = %0, %40
  %21 = phi i8 [ %45, %40 ], [ %15, %0 ]
  %22 = phi i64 [ %43, %40 ], [ 0, %0 ]
  %23 = phi i32 [ %42, %40 ], [ 0, %0 ]
  %24 = mul nsw i32 %14, %23
  %25 = sext i8 %21 to i32
  %26 = add i8 %21, -48
  %27 = icmp ult i8 %26, 10
  br i1 %27, label %28, label %30

28:                                               ; preds = %20
  %29 = add nsw i32 %25, -48
  br label %40

30:                                               ; preds = %20
  %31 = add i8 %21, -65
  %32 = icmp ult i8 %31, 26
  br i1 %32, label %33, label %35

33:                                               ; preds = %30
  %34 = add nsw i32 %25, -55
  br label %40

35:                                               ; preds = %30
  %36 = zext i8 %21 to i32
  %37 = icmp ugt i8 %21, 96
  call void @llvm.assume(i1 %37) #10
  %38 = icmp ult i8 %21, 123
  call void @llvm.assume(i1 %38) #10
  %39 = add nsw i32 %36, -87
  br label %40

40:                                               ; preds = %28, %33, %35
  %41 = phi i32 [ %29, %28 ], [ %34, %33 ], [ %39, %35 ]
  %42 = add nsw i32 %41, %24
  %43 = add nuw i64 %22, 1
  %44 = getelementptr inbounds [99 x i8], [99 x i8]* %4, i64 0, i64 %43
  %45 = load i8, i8* %44, align 1, !tbaa !5
  %46 = icmp eq i8 %45, 0
  br i1 %46, label %17, label %20, !llvm.loop !8

47:                                               ; preds = %47, %17
  %48 = phi i64 [ 0, %17 ], [ %58, %47 ]
  %49 = phi i32 [ %18, %17 ], [ %56, %47 ]
  %50 = srem i32 %49, %19
  %51 = icmp slt i32 %50, 10
  %52 = trunc i32 %50 to i8
  %53 = select i1 %51, i8 48, i8 55
  %54 = add i8 %53, %52
  %55 = getelementptr inbounds [99 x i8], [99 x i8]* %6, i64 0, i64 %48
  store i8 %54, i8* %55, align 1, !tbaa !5
  %56 = sdiv i32 %49, %19
  %57 = icmp eq i32 %56, 0
  %58 = add nuw nsw i64 %48, 1
  %59 = icmp eq i64 %58, 100
  %60 = select i1 %57, i1 true, i1 %59
  br i1 %60, label %61, label %47, !llvm.loop !10

61:                                               ; preds = %47, %68
  %62 = phi i64 [ %69, %68 ], [ 30, %47 ]
  %63 = getelementptr inbounds [99 x i8], [99 x i8]* %6, i64 0, i64 %62
  %64 = load i8, i8* %63, align 1, !tbaa !5
  %65 = icmp eq i8 %64, 32
  br i1 %65, label %68, label %66

66:                                               ; preds = %61
  call void @llvm.lifetime.start.p0i8(i64 1, i8* nonnull %1)
  store i8 %64, i8* %1, align 1, !tbaa !5
  %67 = call nonnull align 8 dereferenceable(8) %"class.std::basic_ostream"* @_ZSt16__ostream_insertIcSt11char_traitsIcEERSt13basic_ostreamIT_T0_ES6_PKS3_l(%"class.std::basic_ostream"* nonnull align 8 dereferenceable(8) @_ZSt4cout, i8* nonnull %1, i64 1)
  call void @llvm.lifetime.end.p0i8(i64 1, i8* nonnull %1)
  br label %68

68:                                               ; preds = %61, %66
  %69 = add nsw i64 %62, -1
  %70 = icmp eq i64 %62, 0
  br i1 %70, label %71, label %61, !llvm.loop !11

71:                                               ; preds = %68
  call void @llvm.lifetime.end.p0i8(i64 99, i8* nonnull %11) #10
  call void @llvm.lifetime.end.p0i8(i64 99, i8* nonnull %10) #10
  call void @llvm.lifetime.end.p0i8(i64 4, i8* nonnull %9) #10
  call void @llvm.lifetime.end.p0i8(i64 4, i8* nonnull %8) #10
  ret i32 0
}

; Function Attrs: argmemonly mustprogress nofree nosync nounwind willreturn
declare void @llvm.lifetime.start.p0i8(i64 immarg, i8* nocapture) #6

declare nonnull align 8 dereferenceable(16) %"class.std::basic_istream"* @_ZNSirsERi(%"class.std::basic_istream"* nonnull align 8 dereferenceable(16), i32* nonnull align 4 dereferenceable(4)) local_unnamed_addr #0

; Function Attrs: argmemonly mustprogress nofree nosync nounwind willreturn
declare void @llvm.lifetime.end.p0i8(i64 immarg, i8* nocapture) #6

declare void @_ZSt17__istream_extractRSiPcl(%"class.std::basic_istream"* nonnull align 8 dereferenceable(16), i8*, i64) local_unnamed_addr #0

declare nonnull align 8 dereferenceable(8) %"class.std::basic_ostream"* @_ZSt16__ostream_insertIcSt11char_traitsIcEERSt13basic_ostreamIT_T0_ES6_PKS3_l(%"class.std::basic_ostream"* nonnull align 8 dereferenceable(8), i8*, i64) local_unnamed_addr #0

; Function Attrs: sspstrong uwtable
define internal void @_GLOBAL__sub_I_1289.cpp() #7 section ".text.startup" {
  tail call void @_ZNSt8ios_base4InitC1Ev(%"class.std::ios_base::Init"* nonnull align 1 dereferenceable(1) @_ZStL8__ioinit)
  %1 = tail call i32 @__cxa_atexit(void (i8*)* bitcast (void (%"class.std::ios_base::Init"*)* @_ZNSt8ios_base4InitD1Ev to void (i8*)*), i8* getelementptr inbounds (%"class.std::ios_base::Init", %"class.std::ios_base::Init"* @_ZStL8__ioinit, i64 0, i32 0), i8* nonnull @__dso_handle) #10
  ret void
}

; Function Attrs: inaccessiblememonly nofree nosync nounwind willreturn
declare void @llvm.assume(i1 noundef) #8

; Function Attrs: argmemonly nofree nounwind willreturn writeonly
declare void @llvm.memset.p0i8.i64(i8* nocapture writeonly, i8, i64, i1 immarg) #9


!llvm.module.flags = !{!0, !1, !2, !3}
!llvm.ident = !{!4}

!0 = !{i32 1, !"wchar_size", i32 4}
!1 = !{i32 7, !"PIC Level", i32 2}
!2 = !{i32 7, !"PIE Level", i32 2}
!3 = !{i32 7, !"uwtable", i32 1}
!4 = !{!"clang version 13.0.0"}
!5 = !{!6, !6, i64 0}
!6 = !{!"omnipotent char", !7, i64 0}
!7 = !{!"Simple C++ TBAA"}
!8 = distinct !{!8, !9}
!9 = !{!"llvm.loop.mustprogress"}
!10 = distinct !{!10, !9}
!11 = distinct !{!11, !9}
